; Function Attrs: mustprogress nofree norecurse nosync nounwind willreturn memory(none) uwtable
define range(i32 42, 71) i32 @l_Lake_hexEncodeByte(i8 noundef zeroext %0) local_unnamed_addr #4 {
  %2 = icmp ult i8 %0, 15
  br i1 %2, label %switch.lookup, label %3

3:                                                ; preds = %1
  %.not80 = icmp eq i8 %0, 15
  %. = select i1 %.not80, i32 70, i32 42
  br label %5

switch.lookup:                                    ; preds = %1
  %4 = zext nneg i8 %0 to i64
  %switch.gep = getelementptr inbounds nuw [15 x i32], ptr @switch.table.l_Lake_hexEncodeByte, i64 0, i64 %4
  %switch.load = load i32, ptr %switch.gep, align 4
  br label %5

5:                                                ; preds = %switch.lookup, %3
  %.15 = phi i32 [ %., %3 ], [ %switch.load, %switch.lookup ]
  ret i32 %.15
}